LAB4-2                                                                                                        PAGE 1

                       1    $MOD52
                       2    
                       3    ;"–ë–µ–≥—É—â–∏–π –æ–≥–æ–Ω—å" —Ä–µ–∞–ª–∏–∑–æ–≤–∞–Ω –Ω–∞ –≤—ã–≤–æ–¥–∞—Ö –ø–æ—Ä—Ç–∞ P1
                       4    ; –°–ª–µ–≤–∞-–Ω–∞–ø—Ä–∞–≤–æ, –≥–æ—Ä—è—Ç 4 –°–ò–î
                       5    ; –í—Ä–µ–º—è —Å–≤–µ—á–µ–Ω–∏—è 0,5 —Å
                       6    ; –†–µ–∂–∏–º 16-–±–∏—Ç–Ω–æ–≥–æ —Ç–∞–π–º–µ—Ä–∞
                       7    ; –†–∞–∑—Ä–µ—à–µ–Ω–∏–µ —Å—á—ë—Ç–∞ –æ–±–µ—Å–ø–µ—á–∏–≤–∞–µ—Ç—Å—è –±–∏—Ç–æ–º GATE —Ä–µ–≥–∏—Å—Ç—
                                                                               Ä–∞ TMOD
                       8    ; INT0 - P3.2
                       9    
  0030                10    LSB_POSITION EQU 30h
  0031                11    CALL_COUNT EQU 31h
                      12    
----                  13    CSEG
0000                  14    ORG 00h
0000 02000E           15            jmp initial_set_up; "–ü—Ä—ã–≥–∞–µ–º" —á–µ—Ä–µ–∑ —Ç–∞–±–ª–∏—Ü—É –≤–µ–∫—Ç–æ—Ä–æ–≤ –ø—Ä
                                                                               –µ—Ä—ã–≤–∞–Ω–∏–π
                      16            
0003                  17    ORG 03h
0003 759055           18            mov P1, #55h
0006 32               19            reti
                      20    
000B                  21    ORG 0Bh
000B 020029           22            jmp timer0_handle
                      23    
                      24    ; –ö–æ–¥ –Ω–∞—Å—Ç—Ä–æ–π–∫–∏ —Ç–∞–π–º–µ—Ä–∞ T/C0 –∏ —Å–æ–æ—Ç–≤–µ—Å—Ç–≤—É—é—â–µ–≥–æ –ø—Ä–µ—Ä—ã
                                                                               –≤–∞–Ω–∏—è
000E                  25    initial_set_up:
                      26            ;–°—Ç–µ–∫ —Ä–∞—Å—Ç—ë—Ç –≤–≤–µ—Ä—Ö - —É–∫–∞–∑–∞—Ç–µ–ª—å —É–∫–∞–∑—ã–≤–∞–µ—Ç –Ω–∞ –ø–µ—
                                                                               Ä–≤—ã–π –±–∞–π—Ç –ø–æ—Å–ª–µ –ø—Ä–æ–≥—Ä–∞–
                                                                               º–º—ã
000E 7581B5           27            mov SP, #stack
                      28    
                      29            ;–£—Å—Ç–∞–Ω–æ–≤–∫–∞ —Ä–µ–∂–∏–º–∞ —Ä–∞–±–æ—Ç—ã —Ç–∞–π–º–µ—Ä–∞ T/C0
0011 758901           30            mov TMOD, #01h
                      31            
                      32            ;–£—Å—Ç–∞–Ω–∞–≤–ª–∏–≤–∞–µ–º –≤—ã—Å–æ–∫–∏–π –ø—Ä–∏–æ—Ä–∏—Ç–µ—Ç –ø—Ä–µ—Ä—ã–≤–∞–Ω–∏—è
0014 75B801           33            mov IP, #01h
                      34            
                      35            ;–ù–∞—á–∞–ª—å–Ω–æ–µ –∑–Ω–∞—á–µ–Ω–∏–µ —Ç–∞–π–º–µ—Ä–∞
0017 758ACF           36            mov TL0, #0CFh
001A 758CCF           37            mov TH0, #0CFh
                      38            
001D 7830             39            mov R0, #LSB_POSITION
001F 7931             40            mov R1, #CALL_COUNT
                      41            
                      42            ;–†–∞–∑—Ä–µ—à–µ–Ω–∏–µ –ø—Ä–µ—Ä—ã–≤–∞–Ω–∏—è —Ç–∞–π–º–µ—Ä–∞ T/C0
0021 75A883           43            mov IE, #83h    
                      44            
                      45            ;–ó–∞–ø—É—Å–∫ —Ç–∞–π–º–µ—Ä–∞ T/C0
0024 758810           46            mov TCON, #10h
                      47            
                      48            ;–ö–æ–Ω–µ—Ü –æ—Å–Ω–æ–≤–Ω–æ–π –ø—Ä–æ–≥—Ä–∞–º–º—ã
0027                  49    lp:
0027 80FE             50            jmp lp
                      51            
0029                  52    timer0_handle:
0029 758800           53            mov TCON, #00h; –ó–∞–ø—Ä–µ—â–∞–µ–º —Å—á—ë—Ç
LAB4-2                                                                                                        PAGE 2

                      54            
002C C0E0             55            push ACC
002E C0D0             56            push PSW
                      57    
                      58            ;–ü–µ—Ä–µ–∑–∞–≥—Ä—É–∂–∞–µ–º –∑–Ω–∞—á–µ–Ω–∏–µ —Ç–∞–π–º–µ—Ä–∞
0030 758ACF           59            mov TL0, #0CFh
0033 758CCF           60            mov TH0, #0CFh
                      61            
                      62            ;–ü—Ä–æ–≤–µ—Ä—è–µ–º, —Å–∫–æ–ª—å–∫–æ —Ä–∞–∑ –±—ã–ª–∞ –≤—ã–∑–≤–∞–Ω–∞ –ø–æ–¥–ø—Ä–æ–≥—Ä–
                                                                               ∞–º–º–∞
0036 E7               63            mov A, @R1
0037 C3               64            clr C
0038 9400             65            subb A, #00h
003A 6004             66            jz change
003C 07               67            inc @R1
003D 0200AB           68            jmp handler_end
                      69    
0040                  70    change: 
0040 7700             71            mov @R1, #00h; –°–±—Ä–∞—Å—ã–≤–∞–µ–º —Å—á—ë—Ç—á–∏–∫ –≤—ã–∑–æ–≤–æ–≤ –ø–æ–¥–ø—Ä–æ–≥—Ä–∞
                                                                               –º–º—ã
                      72    
                      73            ;–ò–Ω–∫—Ä–µ–º–µ–Ω—Ç–∏—Ä—É–µ–º –∑–Ω–∞—á–µ–Ω–∏–µ –ø–æ–∑–∏—Ü–∏–∏ –º–ª–∞–¥—à–µ–≥–æ –±–∏—
                                                                               Ç–∞ –±–µ–≥—É—â–µ–≥–æ –æ–≥–Ω—è
0042 E6               74            mov A, @R0
0043 C3               75            clr C
0044 9407             76            subb A, #07h
0046 6004             77            jz loop_lsb_pos; –ü–æ–∑–∏—Ü–∏—è –º–ª–∞–¥—à–µ–≥–æ –±–∏—Ç–∞ –º–æ–∂–µ—Ç –ª–µ–∂–∞—Ç—å —Ç
                                                                               –æ–ª—å–∫–æ –≤ –ø—Ä–µ–¥–µ–ª–∞—Ö –æ—Ç 0 –¥–
                                                                               æ 7 
0048 06               78            inc @R0
0049 02004E           79            jmp switch
                      80            
004C                  81    loop_lsb_pos:
004C 7600             82            mov @R0, #00h
                      83            
004E                  84    switch:
                      85            ;–í–µ—Ç–≤–ª–µ–Ω–∏–µ –≤ –∑–∞–≤–∏—Å–∏–º–æ—Å—Ç–∏ –æ—Ç –ø–æ–∑–∏—Ü–∏–∏ –º–ª–∞–¥—à–µ–≥–æ –
                                                                               ±–∏—Ç–∞ –±–µ–≥—É—â–µ–≥–æ –æ–≥–Ω—è   
004E C3               86            clr C
004F E6               87            mov A, @R0
0050 9400             88            subb A,  #00h
0052 602A             89            jz lsb_at_zero_pos
                      90            
0054 C3               91            clr C
0055 E6               92            mov A, @R0
0056 9401             93            subb A,  #01h
0058 602A             94            jz lsb_at_first_pos
                      95            
005A C3               96            clr C
005B E6               97            mov A, @R0
005C 9402             98            subb A,  #02h
005E 602A             99            jz lsb_at_second_pos
                     100            
0060 C3              101            clr C
0061 E6              102            mov A, @R0
0062 9403            103            subb A,  #03h
0064 602A            104            jz lsb_at_third_pos
                     105            
LAB4-2                                                                                                        PAGE 3

0066 C3              106            clr C
0067 E6              107            mov A, @R0
0068 9404            108            subb A,  #04h
006A 602A            109            jz lsb_at_fourth_pos
                     110            
006C C3              111            clr C
006D E6              112            mov A, @R0
006E 9405            113            subb A,  #05h
0070 602A            114            jz lsb_at_fifth_pos
                     115            
0072 C3              116            clr C
0073 E6              117            mov A, @R0
0074 9406            118            subb A,  #06h
0076 602A            119            jz lsb_at_sixth_pos
                     120            
0078 C3              121            clr C
0079 E6              122            mov A, @R0
007A 9407            123            subb A,  #07h
007C 602A            124            jz lsb_at_seventh_pos   
                     125    
                     126            ;–í –∑–∞–≤–∏—Å–∏–º–æ—Å—Ç–∏ –æ—Ç –ø–æ–ª—É—á–µ–Ω–Ω–æ–≥–æ –∑–Ω–∞—á–µ–Ω–∏—è –ø–µ—Ä–µ–∫–ª
                                                                               —é—á–∞–µ–º —Å–≤–µ—Ç–æ–¥–∏–æ–¥—ã
007E                 127    lsb_at_zero_pos:
007E 75900F          128            mov P1, #0Fh
0081 0200AB          129            jmp handler_end
0084                 130    lsb_at_first_pos:
0084 759087          131            mov P1, #87h
0087 0200AB          132            jmp handler_end
008A                 133    lsb_at_second_pos:
008A 7590C3          134            mov P1, #0C3h
008D 0200AB          135            jmp handler_end
0090                 136    lsb_at_third_pos:
0090 7590E1          137            mov P1, #0E1h
0093 0200AB          138            jmp handler_end
0096                 139    lsb_at_fourth_pos:
0096 7590F0          140            mov P1, #0F0h
0099 0200AB          141            jmp handler_end
009C                 142    lsb_at_fifth_pos:
009C 759078          143            mov P1, #78h
009F 0200AB          144            jmp handler_end
00A2                 145    lsb_at_sixth_pos:
00A2 75903C          146            mov P1, #3Ch
00A5 0200AB          147            jmp handler_end
00A8                 148    lsb_at_seventh_pos:
00A8 75901E          149            mov P1, #1Eh
                     150            
00AB                 151    handler_end:
                     152            ;–ü—Ä–∏–≤–æ–¥–∏–º —Ä–µ–≥–∏—Å—Ç—Ä—ã –≤ —Å–æ—Å—Ç–æ—è–Ω–∏–µ –¥–æ –≤—ã–∑–æ–≤–∞ –æ–±—Ä–∞–
                                                                               ±–æ—Ç—á–∏–∫–∞ –ø—Ä–µ—Ä—ã–≤–∞–Ω–∏—è
00AB D0D0            153            pop PSW
00AD D0E0            154            pop ACC
                     155            
00AF 758810          156            mov TCON, #10h; –†–∞–∑—Ä–µ—à–∞–µ–º —Å—á—ë—Ç
00B2 0129            157            jmp timer0_handle
                     158    
00B4 32              159            reti;–í—ã—Ö–æ–¥ –∏–∑ –æ–±—Ä–∞–±–æ—Ç—á–∏–∫–∞ –ø—Ä–µ—Ä—ã–≤–∞–Ω–∏—è
                     160            
00B5                 161    stack:
LAB4-2                                                                                                        PAGE 4

                     162    
                     163    END

VERSION 1.2h ASSEMBLY COMPLETE, 0 ERRORS FOUND
LAB4-2                                                                                                        PAGE 5

ACC. . . . . . . . . . . . . . .  D ADDR  00E0H  PREDEFINED  
CALL_COUNT . . . . . . . . . . .    NUMB  0031H  
CHANGE . . . . . . . . . . . . .  C ADDR  0040H  
HANDLER_END. . . . . . . . . . .  C ADDR  00ABH  
IE . . . . . . . . . . . . . . .  D ADDR  00A8H  PREDEFINED  
INITIAL_SET_UP . . . . . . . . .  C ADDR  000EH  
IP . . . . . . . . . . . . . . .  D ADDR  00B8H  PREDEFINED  
LOOP_LSB_POS . . . . . . . . . .  C ADDR  004CH  
LP . . . . . . . . . . . . . . .  C ADDR  0027H  
LSB_AT_FIFTH_POS . . . . . . . .  C ADDR  009CH  
LSB_AT_FIRST_POS . . . . . . . .  C ADDR  0084H  
LSB_AT_FOURTH_POS. . . . . . . .  C ADDR  0096H  
LSB_AT_SECOND_POS. . . . . . . .  C ADDR  008AH  
LSB_AT_SEVENTH_POS . . . . . . .  C ADDR  00A8H  
LSB_AT_SIXTH_POS . . . . . . . .  C ADDR  00A2H  
LSB_AT_THIRD_POS . . . . . . . .  C ADDR  0090H  
LSB_AT_ZERO_POS. . . . . . . . .  C ADDR  007EH  
LSB_POSITION . . . . . . . . . .    NUMB  0030H  
P1 . . . . . . . . . . . . . . .  D ADDR  0090H  PREDEFINED  
PSW. . . . . . . . . . . . . . .  D ADDR  00D0H  PREDEFINED  
SP . . . . . . . . . . . . . . .  D ADDR  0081H  PREDEFINED  
STACK. . . . . . . . . . . . . .  C ADDR  00B5H  
SWITCH . . . . . . . . . . . . .  C ADDR  004EH  
TCON . . . . . . . . . . . . . .  D ADDR  0088H  PREDEFINED  
TH0. . . . . . . . . . . . . . .  D ADDR  008CH  PREDEFINED  
TIMER0_HANDLE. . . . . . . . . .  C ADDR  0029H  
TL0. . . . . . . . . . . . . . .  D ADDR  008AH  PREDEFINED  
TMOD . . . . . . . . . . . . . .  D ADDR  0089H  PREDEFINED  
